; Function Attrs: mustprogress nounwind uwtable
define internal fastcc void @"_ZZN6spdlog7details11thread_poolC1EmmSt8functionIFvvEES4_EN3$_0D2Ev"(ptr noundef nonnull align 8 dereferenceable(72) %this) unnamed_addr #2 align 2 personality ptr @__gxx_personality_v0 {
entry:
  %_M_manager.i.i = getelementptr inbounds i8, ptr %this, i64 56
  %0 = load ptr, ptr %_M_manager.i.i, align 8
  %tobool.not.i.i = icmp eq ptr %0, null
  br i1 %tobool.not.i.i, label %_ZNSt8functionIFvvEED2Ev.exit, label %if.then.i.i

if.then.i.i:                                      ; preds = %entry
  %1 = getelementptr inbounds i8, ptr %this, i64 40
  %call.i.i = invoke noundef zeroext i1 %0(ptr noundef nonnull align 8 dereferenceable(16) %1, ptr noundef nonnull align 8 dereferenceable(16) %1, i32 noundef 3)
          to label %_ZNSt8functionIFvvEED2Ev.exit unwind label %terminate.lpad.i.i

terminate.lpad.i.i:                               ; preds = %if.then.i.i
  %2 = landingpad { ptr, i32 }
          catch ptr null
  %3 = extractvalue { ptr, i32 } %2, 0
  tail call void @__clang_call_terminate(ptr %3) #20
  unreachable

_ZNSt8functionIFvvEED2Ev.exit:                    ; preds = %entry, %if.then.i.i
  %_M_manager.i.i1 = getelementptr inbounds i8, ptr %this, i64 24
  %4 = load ptr, ptr %_M_manager.i.i1, align 8
  %tobool.not.i.i2 = icmp eq ptr %4, null
  br i1 %tobool.not.i.i2, label %_ZNSt8functionIFvvEED2Ev.exit6, label %if.then.i.i3

if.then.i.i3:                                     ; preds = %_ZNSt8functionIFvvEED2Ev.exit
  %5 = getelementptr inbounds i8, ptr %this, i64 8
  %call.i.i4 = invoke noundef zeroext i1 %4(ptr noundef nonnull align 8 dereferenceable(16) %5, ptr noundef nonnull align 8 dereferenceable(16) %5, i32 noundef 3)
          to label %_ZNSt8functionIFvvEED2Ev.exit6 unwind label %terminate.lpad.i.i5

terminate.lpad.i.i5:                              ; preds = %if.then.i.i3
  %6 = landingpad { ptr, i32 }
          catch ptr null
  %7 = extractvalue { ptr, i32 } %6, 0
  tail call void @__clang_call_terminate(ptr %7) #20
  unreachable

_ZNSt8functionIFvvEED2Ev.exit6:                   ; preds = %_ZNSt8functionIFvvEED2Ev.exit, %if.then.i.i3
  ret void
}